; ModuleID = '57/1459.c'
source_filename = "57/1459.c"
target datalayout = "e-m:e-p270:32:32-p271:32:32-p272:64:64-i64:64-f80:128-n8:16:32:64-S128"
target triple = "x86_64-pc-linux-gnu"

@.str = private unnamed_addr constant [3 x i8] c"%d\00", align 1
@.str.1 = private unnamed_addr constant [3 x i8] c"%s\00", align 1
@.str.2 = private unnamed_addr constant [3 x i8] c"%c\00", align 1
@.str.3 = private unnamed_addr constant [2 x i8] c"\0A\00", align 1

; Function Attrs: noinline nounwind uwtable
define dso_local i32 @main(i32 %0, i8** %1) #0 {
  %3 = alloca i32, align 4
  %4 = alloca i32, align 4
  %5 = alloca i8**, align 8
  %6 = alloca i32, align 4
  %7 = alloca i32, align 4
  %8 = alloca i32, align 4
  %9 = alloca [30 x i8], align 16
  %10 = alloca i32, align 4
  store i32 0, i32* %3, align 4
  store i32 %0, i32* %4, align 4
  store i8** %1, i8*** %5, align 8
  %11 = call i32 (i8*, ...) @__isoc99_scanf(i8* getelementptr inbounds ([3 x i8], [3 x i8]* @.str, i64 0, i64 0), i32* %6)
  store i32 0, i32* %7, align 4
  br label %12

12:                                               ; preds = %107, %2
  %13 = load i32, i32* %7, align 4
  %14 = load i32, i32* %6, align 4
  %15 = icmp slt i32 %13, %14
  br i1 %15, label %16, label %110

16:                                               ; preds = %12
  %17 = getelementptr inbounds [30 x i8], [30 x i8]* %9, i64 0, i64 0
  %18 = call i32 (i8*, ...) @__isoc99_scanf(i8* getelementptr inbounds ([3 x i8], [3 x i8]* @.str.1, i64 0, i64 0), i8* %17)
  %19 = getelementptr inbounds [30 x i8], [30 x i8]* %9, i64 0, i64 0
  %20 = call i64 @strlen(i8* %19) #3
  %21 = trunc i64 %20 to i32
  store i32 %21, i32* %10, align 4
  %22 = load i32, i32* %10, align 4
  %23 = sub nsw i32 %22, 1
  %24 = sext i32 %23 to i64
  %25 = getelementptr inbounds [30 x i8], [30 x i8]* %9, i64 0, i64 %24
  %26 = load i8, i8* %25, align 1
  %27 = sext i8 %26 to i32
  %28 = icmp eq i32 %27, 114
  br i1 %28, label %29, label %54

29:                                               ; preds = %16
  %30 = load i32, i32* %10, align 4
  %31 = sub nsw i32 %30, 2
  %32 = sext i32 %31 to i64
  %33 = getelementptr inbounds [30 x i8], [30 x i8]* %9, i64 0, i64 %32
  %34 = load i8, i8* %33, align 1
  %35 = sext i8 %34 to i32
  %36 = icmp eq i32 %35, 101
  br i1 %36, label %37, label %54

37:                                               ; preds = %29
  store i32 0, i32* %8, align 4
  br label %38

38:                                               ; preds = %50, %37
  %39 = load i32, i32* %8, align 4
  %40 = load i32, i32* %10, align 4
  %41 = sub nsw i32 %40, 2
  %42 = icmp slt i32 %39, %41
  br i1 %42, label %43, label %53

43:                                               ; preds = %38
  %44 = load i32, i32* %8, align 4
  %45 = sext i32 %44 to i64
  %46 = getelementptr inbounds [30 x i8], [30 x i8]* %9, i64 0, i64 %45
  %47 = load i8, i8* %46, align 1
  %48 = sext i8 %47 to i32
  %49 = call i32 (i8*, ...) @printf(i8* getelementptr inbounds ([3 x i8], [3 x i8]* @.str.2, i64 0, i64 0), i32 %48)
  br label %50

50:                                               ; preds = %43
  %51 = load i32, i32* %8, align 4
  %52 = add nsw i32 %51, 1
  store i32 %52, i32* %8, align 4
  br label %38

53:                                               ; preds = %38
  br label %105

54:                                               ; preds = %29, %16
  %55 = load i32, i32* %10, align 4
  %56 = sub nsw i32 %55, 1
  %57 = sext i32 %56 to i64
  %58 = getelementptr inbounds [30 x i8], [30 x i8]* %9, i64 0, i64 %57
  %59 = load i8, i8* %58, align 1
  %60 = sext i8 %59 to i32
  %61 = icmp eq i32 %60, 121
  br i1 %61, label %62, label %87

62:                                               ; preds = %54
  %63 = load i32, i32* %10, align 4
  %64 = sub nsw i32 %63, 2
  %65 = sext i32 %64 to i64
  %66 = getelementptr inbounds [30 x i8], [30 x i8]* %9, i64 0, i64 %65
  %67 = load i8, i8* %66, align 1
  %68 = sext i8 %67 to i32
  %69 = icmp eq i32 %68, 108
  br i1 %69, label %70, label %87

70:                                               ; preds = %62
  store i32 0, i32* %8, align 4
  br label %71

71:                                               ; preds = %83, %70
  %72 = load i32, i32* %8, align 4
  %73 = load i32, i32* %10, align 4
  %74 = sub nsw i32 %73, 2
  %75 = icmp slt i32 %72, %74
  br i1 %75, label %76, label %86

76:                                               ; preds = %71
  %77 = load i32, i32* %8, align 4
  %78 = sext i32 %77 to i64
  %79 = getelementptr inbounds [30 x i8], [30 x i8]* %9, i64 0, i64 %78
  %80 = load i8, i8* %79, align 1
  %81 = sext i8 %80 to i32
  %82 = call i32 (i8*, ...) @printf(i8* getelementptr inbounds ([3 x i8], [3 x i8]* @.str.2, i64 0, i64 0), i32 %81)
  br label %83

83:                                               ; preds = %76
  %84 = load i32, i32* %8, align 4
  %85 = add nsw i32 %84, 1
  store i32 %85, i32* %8, align 4
  br label %71

86:                                               ; preds = %71
  br label %104

87:                                               ; preds = %62, %54
  store i32 0, i32* %8, align 4
  br label %88

88:                                               ; preds = %100, %87
  %89 = load i32, i32* %8, align 4
  %90 = load i32, i32* %10, align 4
  %91 = sub nsw i32 %90, 3
  %92 = icmp slt i32 %89, %91
  br i1 %92, label %93, label %103

93:                                               ; preds = %88
  %94 = load i32, i32* %8, align 4
  %95 = sext i32 %94 to i64
  %96 = getelementptr inbounds [30 x i8], [30 x i8]* %9, i64 0, i64 %95
  %97 = load i8, i8* %96, align 1
  %98 = sext i8 %97 to i32
  %99 = call i32 (i8*, ...) @printf(i8* getelementptr inbounds ([3 x i8], [3 x i8]* @.str.2, i64 0, i64 0), i32 %98)
  br label %100

100:                                              ; preds = %93
  %101 = load i32, i32* %8, align 4
  %102 = add nsw i32 %101, 1
  store i32 %102, i32* %8, align 4
  br label %88

103:                                              ; preds = %88
  br label %104

104:                                              ; preds = %103, %86
  br label %105

105:                                              ; preds = %104, %53
  %106 = call i32 (i8*, ...) @printf(i8* getelementptr inbounds ([2 x i8], [2 x i8]* @.str.3, i64 0, i64 0))
  br label %107

107:                                              ; preds = %105
  %108 = load i32, i32* %7, align 4
  %109 = add nsw i32 %108, 1
  store i32 %109, i32* %7, align 4
  br label %12

110:                                              ; preds = %12
  ret i32 0
}

declare dso_local i32 @__isoc99_scanf(i8*, ...) #1

; Function Attrs: nounwind readonly
declare dso_local i64 @strlen(i8*) #2

declare dso_local i32 @printf(i8*, ...) #1


!llvm.module.flags = !{!0}
!llvm.ident = !{!1}

!0 = !{i32 1, !"wchar_size", i32 4}
!1 = !{!"clang version 10.0.0-4ubuntu1 "}
