; ModuleID = 'source-C-CXX/56/1459.c'
source_filename = "source-C-CXX/56/1459.c"
target datalayout = "e-m:e-p270:32:32-p271:32:32-p272:64:64-i64:64-f80:128-n8:16:32:64-S128"
target triple = "x86_64-pc-linux-gnu"

@.str = private unnamed_addr constant [3 x i8] c"%d\00", align 1
@.str.1 = private unnamed_addr constant [3 x i8] c"%s\00", align 1

; Function Attrs: nofree nounwind sspstrong uwtable
define dso_local i32 @main(i32 %0, i8** nocapture readnone %1) local_unnamed_addr #0 {
  %3 = alloca i32, align 4
  %4 = alloca [30 x i8], align 16
  %5 = bitcast i32* %3 to i8*
  call void @llvm.lifetime.start.p0i8(i64 4, i8* nonnull %5) #5
  %6 = call i32 (i8*, ...) @__isoc99_scanf(i8* getelementptr inbounds ([3 x i8], [3 x i8]* @.str, i64 0, i64 0), i32* nonnull %3)
  %7 = getelementptr inbounds [30 x i8], [30 x i8]* %4, i64 0, i64 0
  call void @llvm.lifetime.start.p0i8(i64 30, i8* nonnull %7) #5
  %8 = load i32, i32* %3, align 4, !tbaa !5
  %9 = icmp sgt i32 %8, 0
  br i1 %9, label %10, label %74

10:                                               ; preds = %2, %69
  %11 = phi i32 [ %71, %69 ], [ 0, %2 ]
  %12 = call i32 (i8*, ...) @__isoc99_scanf(i8* getelementptr inbounds ([3 x i8], [3 x i8]* @.str.1, i64 0, i64 0), i8* nonnull %7)
  %13 = call i64 @strlen(i8* noundef nonnull %7) #6
  %14 = trunc i64 %13 to i32
  %15 = shl i64 %13, 32
  %16 = add i64 %15, -4294967296
  %17 = ashr exact i64 %16, 32
  %18 = getelementptr inbounds [30 x i8], [30 x i8]* %4, i64 0, i64 %17
  %19 = load i8, i8* %18, align 1, !tbaa !9
  switch i8 %19, label %56 [
    i8 114, label %20
    i8 121, label %38
  ]

20:                                               ; preds = %10
  %21 = add i32 %14, -2
  %22 = sext i32 %21 to i64
  %23 = getelementptr inbounds [30 x i8], [30 x i8]* %4, i64 0, i64 %22
  %24 = load i8, i8* %23, align 1, !tbaa !9
  %25 = icmp eq i8 %24, 101
  br i1 %25, label %26, label %56

26:                                               ; preds = %20
  %27 = icmp sgt i32 %14, 2
  br i1 %27, label %28, label %69

28:                                               ; preds = %26
  %29 = zext i32 %21 to i64
  br label %30

30:                                               ; preds = %28, %30
  %31 = phi i64 [ 0, %28 ], [ %36, %30 ]
  %32 = getelementptr inbounds [30 x i8], [30 x i8]* %4, i64 0, i64 %31
  %33 = load i8, i8* %32, align 1, !tbaa !9
  %34 = sext i8 %33 to i32
  %35 = call i32 @putchar(i32 %34)
  %36 = add nuw nsw i64 %31, 1
  %37 = icmp eq i64 %36, %29
  br i1 %37, label %69, label %30, !llvm.loop !10

38:                                               ; preds = %10
  %39 = add i32 %14, -2
  %40 = sext i32 %39 to i64
  %41 = getelementptr inbounds [30 x i8], [30 x i8]* %4, i64 0, i64 %40
  %42 = load i8, i8* %41, align 1, !tbaa !9
  %43 = icmp eq i8 %42, 108
  br i1 %43, label %44, label %56

44:                                               ; preds = %38
  %45 = icmp sgt i32 %14, 2
  br i1 %45, label %46, label %69

46:                                               ; preds = %44
  %47 = zext i32 %39 to i64
  br label %48

48:                                               ; preds = %46, %48
  %49 = phi i64 [ 0, %46 ], [ %54, %48 ]
  %50 = getelementptr inbounds [30 x i8], [30 x i8]* %4, i64 0, i64 %49
  %51 = load i8, i8* %50, align 1, !tbaa !9
  %52 = sext i8 %51 to i32
  %53 = call i32 @putchar(i32 %52)
  %54 = add nuw nsw i64 %49, 1
  %55 = icmp eq i64 %54, %47
  br i1 %55, label %69, label %48, !llvm.loop !12

56:                                               ; preds = %10, %20, %38
  %57 = icmp sgt i32 %14, 3
  br i1 %57, label %58, label %69

58:                                               ; preds = %56
  %59 = add i64 %13, 4294967293
  %60 = and i64 %59, 4294967295
  br label %61

61:                                               ; preds = %58, %61
  %62 = phi i64 [ 0, %58 ], [ %67, %61 ]
  %63 = getelementptr inbounds [30 x i8], [30 x i8]* %4, i64 0, i64 %62
  %64 = load i8, i8* %63, align 1, !tbaa !9
  %65 = sext i8 %64 to i32
  %66 = call i32 @putchar(i32 %65)
  %67 = add nuw nsw i64 %62, 1
  %68 = icmp eq i64 %67, %60
  br i1 %68, label %69, label %61, !llvm.loop !13

69:                                               ; preds = %48, %30, %61, %44, %26, %56
  %70 = call i32 @putchar(i32 10)
  %71 = add nuw nsw i32 %11, 1
  %72 = load i32, i32* %3, align 4, !tbaa !5
  %73 = icmp slt i32 %71, %72
  br i1 %73, label %10, label %74, !llvm.loop !14

74:                                               ; preds = %69, %2
  call void @llvm.lifetime.end.p0i8(i64 30, i8* nonnull %7) #5
  call void @llvm.lifetime.end.p0i8(i64 4, i8* nonnull %5) #5
  ret i32 0
}

; Function Attrs: argmemonly mustprogress nofree nosync nounwind willreturn
declare void @llvm.lifetime.start.p0i8(i64 immarg, i8* nocapture) #1

; Function Attrs: nofree nounwind
declare noundef i32 @__isoc99_scanf(i8* nocapture noundef readonly, ...) local_unnamed_addr #2

; Function Attrs: argmemonly mustprogress nofree nounwind readonly willreturn
declare i64 @strlen(i8* nocapture) local_unnamed_addr #3

; Function Attrs: argmemonly mustprogress nofree nosync nounwind willreturn
declare void @llvm.lifetime.end.p0i8(i64 immarg, i8* nocapture) #1

; Function Attrs: nofree nounwind
declare noundef i32 @putchar(i32 noundef) local_unnamed_addr #4


!llvm.module.flags = !{!0, !1, !2, !3}
!llvm.ident = !{!4}

!0 = !{i32 1, !"wchar_size", i32 4}
!1 = !{i32 7, !"PIC Level", i32 2}
!2 = !{i32 7, !"PIE Level", i32 2}
!3 = !{i32 7, !"uwtable", i32 1}
!4 = !{!"clang version 13.0.0"}
!5 = !{!6, !6, i64 0}
!6 = !{!"int", !7, i64 0}
!7 = !{!"omnipotent char", !8, i64 0}
!8 = !{!"Simple C/C++ TBAA"}
!9 = !{!7, !7, i64 0}
!10 = distinct !{!10, !11}
!11 = !{!"llvm.loop.mustprogress"}
!12 = distinct !{!12, !11}
!13 = distinct !{!13, !11}
!14 = distinct !{!14, !11}
